; Function Attrs: inlinehint mustprogress uwtable
define internal noundef ptr @_ZL19PyObject_VectorcallP7_objectPKS0_mS0_(ptr noundef %0, ptr noundef %1, i64 noundef %2, ptr noundef %3) unnamed_addr #16 {
  %5 = tail call ptr @PyThreadState_Get()
  %6 = getelementptr inbounds nuw i8, ptr %0, i64 8
  %7 = load ptr, ptr %6, align 8
  %8 = getelementptr i8, ptr %7, i64 168
  %.val.i.i = load i64, ptr %8, align 8
  %9 = and i64 %.val.i.i, 2048
  %.not.i.i = icmp eq i64 %9, 0
  br i1 %.not.i.i, label %_ZL21PyVectorcall_FunctionP7_object.exit.thread.i, label %_ZL21PyVectorcall_FunctionP7_object.exit.i

_ZL21PyVectorcall_FunctionP7_object.exit.i:       ; preds = %4
  %10 = getelementptr inbounds nuw i8, ptr %7, i64 56
  %11 = load i64, ptr %10, align 8
  %12 = getelementptr inbounds i8, ptr %0, i64 %11
  %.0.copyload.i.i = load ptr, ptr %12, align 1
  %13 = icmp eq ptr %.0.copyload.i.i, null
  br i1 %13, label %_ZL21PyVectorcall_FunctionP7_object.exit.thread.i, label %16

_ZL21PyVectorcall_FunctionP7_object.exit.thread.i: ; preds = %_ZL21PyVectorcall_FunctionP7_object.exit.i, %4
  %14 = and i64 %2, 9223372036854775807
  %15 = tail call ptr @_PyObject_MakeTpCall(ptr noundef %5, ptr noundef nonnull %0, ptr noundef %1, i64 noundef %14, ptr noundef %3)
  br label %_ZL26_PyObject_VectorcallTstateP3_tsP7_objectPKS2_mS2_.exit

16:                                               ; preds = %_ZL21PyVectorcall_FunctionP7_object.exit.i
  %17 = tail call noundef ptr %.0.copyload.i.i(ptr noundef nonnull %0, ptr noundef %1, i64 noundef %2, ptr noundef %3)
  %18 = tail call ptr @_Py_CheckFunctionResult(ptr noundef %5, ptr noundef nonnull %0, ptr noundef %17, ptr noundef null)
  br label %_ZL26_PyObject_VectorcallTstateP3_tsP7_objectPKS2_mS2_.exit

_ZL26_PyObject_VectorcallTstateP3_tsP7_objectPKS2_mS2_.exit: ; preds = %_ZL21PyVectorcall_FunctionP7_object.exit.thread.i, %16
  %.0.i = phi ptr [ %15, %_ZL21PyVectorcall_FunctionP7_object.exit.thread.i ], [ %18, %16 ]
  ret ptr %.0.i
}